; ModuleID = '37/1449.c'
source_filename = "37/1449.c"
target datalayout = "e-m:e-p270:32:32-p271:32:32-p272:64:64-i64:64-f80:128-n8:16:32:64-S128"
target triple = "x86_64-pc-linux-gnu"

@.str = private unnamed_addr constant [3 x i8] c"%d\00", align 1
@n = common dso_local global i32 0, align 4
@i = common dso_local global i32 0, align 4
@.str.1 = private unnamed_addr constant [3 x i8] c"%s\00", align 1
@s = common dso_local global [1000 x i8] zeroinitializer, align 16
@len = common dso_local global i32 0, align 4
@cnt = common dso_local global [1000 x i32] zeroinitializer, align 16
@j = common dso_local global i32 0, align 4
@.str.2 = private unnamed_addr constant [4 x i8] c"%c\0A\00", align 1
@.str.3 = private unnamed_addr constant [3 x i8] c"no\00", align 1

; Function Attrs: noinline nounwind uwtable
define dso_local i32 @main() #0 {
  %1 = alloca i32, align 4
  store i32 0, i32* %1, align 4
  %2 = call i32 (i8*, ...) @__isoc99_scanf(i8* getelementptr inbounds ([3 x i8], [3 x i8]* @.str, i64 0, i64 0), i32* @n)
  store i32 0, i32* @i, align 4
  br label %3

3:                                                ; preds = %64, %0
  %4 = load i32, i32* @i, align 4
  %5 = load i32, i32* @n, align 4
  %6 = icmp slt i32 %4, %5
  br i1 %6, label %7, label %67

7:                                                ; preds = %3
  %8 = call i32 (i8*, ...) @__isoc99_scanf(i8* getelementptr inbounds ([3 x i8], [3 x i8]* @.str.1, i64 0, i64 0), i8* getelementptr inbounds ([1000 x i8], [1000 x i8]* @s, i64 0, i64 0))
  %9 = call i64 @strlen(i8* getelementptr inbounds ([1000 x i8], [1000 x i8]* @s, i64 0, i64 0)) #4
  %10 = trunc i64 %9 to i32
  store i32 %10, i32* @len, align 4
  call void @llvm.memset.p0i8.i64(i8* align 16 bitcast ([1000 x i32]* @cnt to i8*), i8 0, i64 4000, i1 false)
  store i32 0, i32* @j, align 4
  br label %11

11:                                               ; preds = %26, %7
  %12 = load i32, i32* @j, align 4
  %13 = load i32, i32* @len, align 4
  %14 = icmp slt i32 %12, %13
  br i1 %14, label %15, label %29

15:                                               ; preds = %11
  %16 = load i32, i32* @j, align 4
  %17 = sext i32 %16 to i64
  %18 = getelementptr inbounds [1000 x i8], [1000 x i8]* @s, i64 0, i64 %17
  %19 = load i8, i8* %18, align 1
  %20 = sext i8 %19 to i32
  %21 = sub nsw i32 %20, 97
  %22 = sext i32 %21 to i64
  %23 = getelementptr inbounds [1000 x i32], [1000 x i32]* @cnt, i64 0, i64 %22
  %24 = load i32, i32* %23, align 4
  %25 = add nsw i32 %24, 1
  store i32 %25, i32* %23, align 4
  br label %26

26:                                               ; preds = %15
  %27 = load i32, i32* @j, align 4
  %28 = add nsw i32 %27, 1
  store i32 %28, i32* @j, align 4
  br label %11

29:                                               ; preds = %11
  store i32 0, i32* @j, align 4
  br label %30

30:                                               ; preds = %47, %29
  %31 = load i32, i32* @j, align 4
  %32 = load i32, i32* @len, align 4
  %33 = icmp slt i32 %31, %32
  br i1 %33, label %34, label %50

34:                                               ; preds = %30
  %35 = load i32, i32* @j, align 4
  %36 = sext i32 %35 to i64
  %37 = getelementptr inbounds [1000 x i8], [1000 x i8]* @s, i64 0, i64 %36
  %38 = load i8, i8* %37, align 1
  %39 = sext i8 %38 to i32
  %40 = sub nsw i32 %39, 97
  %41 = sext i32 %40 to i64
  %42 = getelementptr inbounds [1000 x i32], [1000 x i32]* @cnt, i64 0, i64 %41
  %43 = load i32, i32* %42, align 4
  %44 = icmp eq i32 %43, 1
  br i1 %44, label %45, label %46

45:                                               ; preds = %34
  br label %50

46:                                               ; preds = %34
  br label %47

47:                                               ; preds = %46
  %48 = load i32, i32* @j, align 4
  %49 = add nsw i32 %48, 1
  store i32 %49, i32* @j, align 4
  br label %30

50:                                               ; preds = %45, %30
  %51 = load i32, i32* @j, align 4
  %52 = load i32, i32* @len, align 4
  %53 = icmp slt i32 %51, %52
  br i1 %53, label %54, label %61

54:                                               ; preds = %50
  %55 = load i32, i32* @j, align 4
  %56 = sext i32 %55 to i64
  %57 = getelementptr inbounds [1000 x i8], [1000 x i8]* @s, i64 0, i64 %56
  %58 = load i8, i8* %57, align 1
  %59 = sext i8 %58 to i32
  %60 = call i32 (i8*, ...) @printf(i8* getelementptr inbounds ([4 x i8], [4 x i8]* @.str.2, i64 0, i64 0), i32 %59)
  br label %63

61:                                               ; preds = %50
  %62 = call i32 @puts(i8* getelementptr inbounds ([3 x i8], [3 x i8]* @.str.3, i64 0, i64 0))
  br label %63

63:                                               ; preds = %61, %54
  br label %64

64:                                               ; preds = %63
  %65 = load i32, i32* @i, align 4
  %66 = add nsw i32 %65, 1
  store i32 %66, i32* @i, align 4
  br label %3

67:                                               ; preds = %3
  %68 = load i32, i32* %1, align 4
  ret i32 %68
}

declare dso_local i32 @__isoc99_scanf(i8*, ...) #1

; Function Attrs: nounwind readonly
declare dso_local i64 @strlen(i8*) #2

; Function Attrs: argmemonly nounwind willreturn
declare void @llvm.memset.p0i8.i64(i8* nocapture writeonly, i8, i64, i1 immarg) #3

declare dso_local i32 @printf(i8*, ...) #1

declare dso_local i32 @puts(i8*) #1


!llvm.module.flags = !{!0}
!llvm.ident = !{!1}

!0 = !{i32 1, !"wchar_size", i32 4}
!1 = !{!"clang version 10.0.0-4ubuntu1 "}
